target datalayout = "e-m:e-p270:32:32-p271:32:32-p272:64:64-i64:64-i128:128-f80:128-n8:16:32:64-S128"
target triple = "x86_64-pc-linux-gnu"

%struct.client_response = type { ptr }
%struct.spawn_resp = type { i32, i32, ptr, i16, i32, ptr }

@plugin_type = external constant [0 x i8], align 1
@.str.91 = private unnamed_addr constant [35 x i8] c"%s: %s: mpi/pmi2: in _handle_spawn\00", align 1
@__func__._handle_spawn = private unnamed_addr constant [14 x i8] c"_handle_spawn\00", align 1
@.str.92 = private unnamed_addr constant [49 x i8] c"cmd=spawn-response;rc=%d;errmsg=invalid command;\00", align 1
@.str.93 = private unnamed_addr constant [46 x i8] c"cmd=spawn-response;rc=%d;errmsg=spawn failed;\00", align 1
@.str.94 = private unnamed_addr constant [31 x i8] c"%s: %s: mpi/pmi2: spawn failed\00", align 1
@.str.95 = private unnamed_addr constant [45 x i8] c"%s: %s: mpi/pmi2: spawn request sent to srun\00", align 1
@.str.96 = private unnamed_addr constant [36 x i8] c"%s: %s: mpi/pmi2: out _handle_spawn\00", align 1

; Function Attrs: nounwind uwtable
define internal i32 @_handle_spawn(i32 noundef %0, i32 noundef %1, ptr noundef %2) #0 {
  %4 = alloca i32, align 4
  %5 = alloca i32, align 4
  %6 = alloca i32, align 4
  %7 = alloca ptr, align 8
  %8 = alloca i32, align 4
  %9 = alloca ptr, align 8
  %10 = alloca ptr, align 8
  %11 = alloca ptr, align 8
  %12 = alloca i32, align 4
  store i32 %0, ptr %5, align 4
  store i32 %1, ptr %6, align 4
  store ptr %2, ptr %7, align 8
  call void @llvm.lifetime.start.p0(i64 4, ptr %8) #6
  call void @llvm.lifetime.start.p0(i64 8, ptr %9) #6
  store ptr null, ptr %9, align 8
  call void @llvm.lifetime.start.p0(i64 8, ptr %10) #6
  store ptr null, ptr %10, align 8
  call void @llvm.lifetime.start.p0(i64 8, ptr %11) #6
  br label %13

13:                                               ; preds = %3
  br label %14

14:                                               ; preds = %13
  %15 = call i32 @slurm_get_log_level()
  %16 = icmp sge i32 %15, 7
  br i1 %16, label %17, label %18

17:                                               ; preds = %14
  call void (i32, ptr, ...) @slurm_log_var(i32 noundef 7, ptr noundef @.str.91, ptr noundef @plugin_type, ptr noundef @__func__._handle_spawn)
  br label %18

18:                                               ; preds = %17, %14
  br label %19

19:                                               ; preds = %18
  br label %20

20:                                               ; preds = %19
  br label %21

21:                                               ; preds = %20
  br label %22

22:                                               ; preds = %21
  %23 = load ptr, ptr %7, align 8
  %24 = call i32 @client_req_parse_body(ptr noundef %23)
  %25 = load ptr, ptr %7, align 8
  %26 = call ptr @client_req_parse_spawn_req(ptr noundef %25)
  store ptr %26, ptr %9, align 8
  %27 = load ptr, ptr %9, align 8
  %28 = icmp eq ptr %27, null
  br i1 %28, label %29, label %40

29:                                               ; preds = %22
  %30 = call ptr @client_resp_new()
  store ptr %30, ptr %11, align 8
  br label %31

31:                                               ; preds = %29
  %32 = load ptr, ptr %11, align 8
  %33 = getelementptr inbounds nuw %struct.client_response, ptr %32, i32 0, i32 0
  call void (ptr, ptr, ...) @slurm_xstrfmtcat(ptr noundef %33, ptr noundef @.str.92, i32 noundef 10)
  br label %34

34:                                               ; preds = %31
  br label %35

35:                                               ; preds = %34
  %36 = load ptr, ptr %11, align 8
  %37 = load i32, ptr %5, align 4
  %38 = call i32 @client_resp_send(ptr noundef %36, i32 noundef %37)
  %39 = load ptr, ptr %11, align 8
  call void @client_resp_free(ptr noundef %39)
  store i32 -1, ptr %4, align 4
  store i32 1, ptr %12, align 4
  br label %103

40:                                               ; preds = %22
  %41 = load ptr, ptr %9, align 8
  %42 = call i32 @spawn_req_send_to_srun(ptr noundef %41, ptr noundef %10)
  store i32 %42, ptr %8, align 4
  %43 = load ptr, ptr %10, align 8
  %44 = getelementptr inbounds nuw %struct.spawn_resp, ptr %43, i32 0, i32 1
  %45 = load i32, ptr %44, align 4
  %46 = icmp ne i32 %45, 0
  br i1 %46, label %47, label %73

47:                                               ; preds = %40
  %48 = call ptr @client_resp_new()
  store ptr %48, ptr %11, align 8
  br label %49

49:                                               ; preds = %47
  %50 = load ptr, ptr %11, align 8
  %51 = getelementptr inbounds nuw %struct.client_response, ptr %50, i32 0, i32 0
  %52 = load ptr, ptr %10, align 8
  %53 = getelementptr inbounds nuw %struct.spawn_resp, ptr %52, i32 0, i32 1
  %54 = load i32, ptr %53, align 4
  call void (ptr, ptr, ...) @slurm_xstrfmtcat(ptr noundef %51, ptr noundef @.str.93, i32 noundef %54)
  br label %55

55:                                               ; preds = %49
  br label %56

56:                                               ; preds = %55
  %57 = load ptr, ptr %11, align 8
  %58 = load i32, ptr %5, align 4
  %59 = call i32 @client_resp_send(ptr noundef %57, i32 noundef %58)
  %60 = load ptr, ptr %11, align 8
  call void @client_resp_free(ptr noundef %60)
  %61 = load ptr, ptr %9, align 8
  call void @spawn_req_free(ptr noundef %61)
  %62 = load ptr, ptr %10, align 8
  call void @spawn_resp_free(ptr noundef %62)
  br label %63

63:                                               ; preds = %56
  br label %64

64:                                               ; preds = %63
  %65 = call i32 @slurm_get_log_level()
  %66 = icmp sge i32 %65, 5
  br i1 %66, label %67, label %68

67:                                               ; preds = %64
  call void (i32, ptr, ...) @slurm_log_var(i32 noundef 5, ptr noundef @.str.94, ptr noundef @plugin_type, ptr noundef @__func__._handle_spawn)
  br label %68

68:                                               ; preds = %67, %64
  br label %69

69:                                               ; preds = %68
  br label %70

70:                                               ; preds = %69
  br label %71

71:                                               ; preds = %70
  br label %72

72:                                               ; preds = %71
  store i32 -1, ptr %4, align 4
  store i32 1, ptr %12, align 4
  br label %103

73:                                               ; preds = %40
  br label %74

74:                                               ; preds = %73
  br label %75

75:                                               ; preds = %74
  %76 = call i32 @slurm_get_log_level()
  %77 = icmp sge i32 %76, 7
  br i1 %77, label %78, label %79

78:                                               ; preds = %75
  call void (i32, ptr, ...) @slurm_log_var(i32 noundef 7, ptr noundef @.str.95, ptr noundef @plugin_type, ptr noundef @__func__._handle_spawn)
  br label %79

79:                                               ; preds = %78, %75
  br label %80

80:                                               ; preds = %79
  br label %81

81:                                               ; preds = %80
  br label %82

82:                                               ; preds = %81
  br label %83

83:                                               ; preds = %82
  %84 = load ptr, ptr %10, align 8
  %85 = getelementptr inbounds nuw %struct.spawn_resp, ptr %84, i32 0, i32 0
  %86 = load i32, ptr %85, align 8
  %87 = load i32, ptr %5, align 4
  %88 = load i32, ptr %6, align 4
  %89 = call i32 @spawn_psr_enqueue(i32 noundef %86, i32 noundef %87, i32 noundef %88, ptr noundef null)
  %90 = load ptr, ptr %9, align 8
  call void @spawn_req_free(ptr noundef %90)
  %91 = load ptr, ptr %10, align 8
  call void @spawn_resp_free(ptr noundef %91)
  br label %92

92:                                               ; preds = %83
  br label %93

93:                                               ; preds = %92
  %94 = call i32 @slurm_get_log_level()
  %95 = icmp sge i32 %94, 7
  br i1 %95, label %96, label %97

96:                                               ; preds = %93
  call void (i32, ptr, ...) @slurm_log_var(i32 noundef 7, ptr noundef @.str.96, ptr noundef @plugin_type, ptr noundef @__func__._handle_spawn)
  br label %97

97:                                               ; preds = %96, %93
  br label %98

98:                                               ; preds = %97
  br label %99

99:                                               ; preds = %98
  br label %100

100:                                              ; preds = %99
  br label %101

101:                                              ; preds = %100
  %102 = load i32, ptr %8, align 4
  store i32 %102, ptr %4, align 4
  store i32 1, ptr %12, align 4
  br label %103

103:                                              ; preds = %101, %72, %35
  call void @llvm.lifetime.end.p0(i64 8, ptr %11) #6
  call void @llvm.lifetime.end.p0(i64 8, ptr %10) #6
  call void @llvm.lifetime.end.p0(i64 8, ptr %9) #6
  call void @llvm.lifetime.end.p0(i64 4, ptr %8) #6
  %104 = load i32, ptr %4, align 4
  ret i32 %104
}