; Function Attrs: nounwind uwtable
define internal i32 @_handle_spawn(i32 noundef %0, i32 noundef %1, ptr noundef %2) #0 {
  %4 = alloca ptr, align 8
  call void @llvm.lifetime.start.p0(i64 8, ptr nonnull %4) #7
  store ptr null, ptr %4, align 8
  %5 = tail call i32 @slurm_get_log_level() #7
  %6 = icmp sgt i32 %5, 6
  br i1 %6, label %7, label %8

7:                                                ; preds = %3
  tail call void (i32, ptr, ...) @slurm_log_var(i32 noundef 7, ptr noundef nonnull @.str.91, ptr noundef nonnull @plugin_type, ptr noundef nonnull @__func__._handle_spawn) #7
  br label %8

8:                                                ; preds = %7, %3
  %9 = tail call i32 @client_req_parse_body(ptr noundef %2) #7
  %10 = tail call ptr @client_req_parse_spawn_req(ptr noundef %2) #7
  %11 = icmp eq ptr %10, null
  br i1 %11, label %12, label %15

12:                                               ; preds = %8
  %13 = tail call ptr @client_resp_new() #7
  tail call void (ptr, ptr, ...) @slurm_xstrfmtcat(ptr noundef %13, ptr noundef nonnull @.str.92, i32 noundef 10) #7
  %14 = tail call i32 @client_resp_send(ptr noundef %13, i32 noundef %0) #7
  tail call void @client_resp_free(ptr noundef %13) #7
  br label %42

15:                                               ; preds = %8
  %16 = call i32 @spawn_req_send_to_srun(ptr noundef nonnull %10, ptr noundef nonnull %4) #7
  %17 = load ptr, ptr %4, align 8
  %18 = getelementptr inbounds nuw i8, ptr %17, i64 4
  %19 = load i32, ptr %18, align 4
  %.not = icmp eq i32 %19, 0
  br i1 %.not, label %30, label %20

20:                                               ; preds = %15
  %21 = call ptr @client_resp_new() #7
  %22 = load ptr, ptr %4, align 8
  %23 = getelementptr inbounds nuw i8, ptr %22, i64 4
  %24 = load i32, ptr %23, align 4
  call void (ptr, ptr, ...) @slurm_xstrfmtcat(ptr noundef %21, ptr noundef nonnull @.str.93, i32 noundef %24) #7
  %25 = call i32 @client_resp_send(ptr noundef %21, i32 noundef %0) #7
  call void @client_resp_free(ptr noundef %21) #7
  call void @spawn_req_free(ptr noundef nonnull %10) #7
  %26 = load ptr, ptr %4, align 8
  call void @spawn_resp_free(ptr noundef %26) #7
  %27 = call i32 @slurm_get_log_level() #7
  %28 = icmp sgt i32 %27, 4
  br i1 %28, label %29, label %42

29:                                               ; preds = %20
  call void (i32, ptr, ...) @slurm_log_var(i32 noundef 5, ptr noundef nonnull @.str.94, ptr noundef nonnull @plugin_type, ptr noundef nonnull @__func__._handle_spawn) #7
  br label %42

30:                                               ; preds = %15
  %31 = call i32 @slurm_get_log_level() #7
  %32 = icmp sgt i32 %31, 6
  br i1 %32, label %33, label %34

33:                                               ; preds = %30
  call void (i32, ptr, ...) @slurm_log_var(i32 noundef 7, ptr noundef nonnull @.str.95, ptr noundef nonnull @plugin_type, ptr noundef nonnull @__func__._handle_spawn) #7
  br label %34

34:                                               ; preds = %33, %30
  %35 = load ptr, ptr %4, align 8
  %36 = load i32, ptr %35, align 8
  %37 = call i32 @spawn_psr_enqueue(i32 noundef %36, i32 noundef %0, i32 noundef %1, ptr noundef null) #7
  call void @spawn_req_free(ptr noundef nonnull %10) #7
  %38 = load ptr, ptr %4, align 8
  call void @spawn_resp_free(ptr noundef %38) #7
  %39 = call i32 @slurm_get_log_level() #7
  %40 = icmp sgt i32 %39, 6
  br i1 %40, label %41, label %42

41:                                               ; preds = %34
  call void (i32, ptr, ...) @slurm_log_var(i32 noundef 7, ptr noundef nonnull @.str.96, ptr noundef nonnull @plugin_type, ptr noundef nonnull @__func__._handle_spawn) #7
  br label %42

42:                                               ; preds = %34, %41, %20, %29, %12
  %.0 = phi i32 [ -1, %12 ], [ -1, %29 ], [ -1, %20 ], [ %16, %41 ], [ %16, %34 ]
  call void @llvm.lifetime.end.p0(i64 8, ptr nonnull %4) #7
  ret i32 %.0
}